; Function Attrs: mustprogress uwtable
define void @_ZN32pxrInternal_v0_24__pxrReserved__23TfStringGetCommonPrefixENSt7__cxx1112basic_stringIcSt11char_traitsIcESaIcEEES5_(ptr dead_on_unwind noalias writable sret(%"class.std::__cxx11::basic_string") align 8 %0, ptr noundef %1, ptr noundef nonnull %2) local_unnamed_addr #0 personality ptr @__gxx_personality_v0 {
  %4 = alloca %"class.std::allocator", align 1
  %5 = tail call noundef i64 @_ZNKSt7__cxx1112basic_stringIcSt11char_traitsIcESaIcEE6lengthEv(ptr noundef nonnull align 8 dereferenceable(32) %2) #22
  %6 = tail call noundef i64 @_ZNKSt7__cxx1112basic_stringIcSt11char_traitsIcESaIcEE6lengthEv(ptr noundef nonnull align 8 dereferenceable(32) %1) #22
  %7 = icmp ult i64 %5, %6
  br i1 %7, label %8, label %9

8:                                                ; preds = %3
  tail call void @_ZNSt7__cxx1112basic_stringIcSt11char_traitsIcESaIcEE4swapERS4_(ptr noundef nonnull align 8 dereferenceable(32) %2, ptr noundef nonnull align 8 dereferenceable(32) %1) #22
  br label %9

9:                                                ; preds = %8, %3
  %10 = tail call ptr @_ZNSt7__cxx1112basic_stringIcSt11char_traitsIcESaIcEE5beginEv(ptr noundef nonnull align 8 dereferenceable(32) %1) #22
  %11 = tail call ptr @_ZNSt7__cxx1112basic_stringIcSt11char_traitsIcESaIcEE3endEv(ptr noundef nonnull align 8 dereferenceable(32) %1) #22
  %12 = tail call ptr @_ZNSt7__cxx1112basic_stringIcSt11char_traitsIcESaIcEE5beginEv(ptr noundef nonnull align 8 dereferenceable(32) %2) #22
  %.not6.i.i = icmp eq ptr %10, %11
  br i1 %.not6.i.i, label %_ZSt8mismatchIN9__gnu_cxx17__normal_iteratorIPcNSt7__cxx1112basic_stringIcSt11char_traitsIcESaIcEEEEES9_ESt4pairIT_T0_ESB_SB_SC_.exit, label %.lr.ph.preheader.i.i

.lr.ph.preheader.i.i:                             ; preds = %9
  %13 = ptrtoint ptr %11 to i64
  %14 = ptrtoint ptr %10 to i64
  %15 = sub i64 %13, %14
  %scevgep.i.i = getelementptr i8, ptr %10, i64 %15
  br label %.lr.ph.i.i

.lr.ph.i.i:                                       ; preds = %19, %.lr.ph.preheader.i.i
  %.sroa.0.08.i.i = phi ptr [ %21, %19 ], [ %12, %.lr.ph.preheader.i.i ]
  %.sroa.03.07.i.i = phi ptr [ %20, %19 ], [ %10, %.lr.ph.preheader.i.i ]
  %16 = load i8, ptr %.sroa.03.07.i.i, align 1
  %17 = load i8, ptr %.sroa.0.08.i.i, align 1
  %18 = icmp eq i8 %16, %17
  br i1 %18, label %19, label %_ZSt8mismatchIN9__gnu_cxx17__normal_iteratorIPcNSt7__cxx1112basic_stringIcSt11char_traitsIcESaIcEEEEES9_ESt4pairIT_T0_ESB_SB_SC_.exit

19:                                               ; preds = %.lr.ph.i.i
  %20 = getelementptr inbounds i8, ptr %.sroa.03.07.i.i, i64 1
  %21 = getelementptr inbounds i8, ptr %.sroa.0.08.i.i, i64 1
  %.not.i.i = icmp eq ptr %20, %11
  br i1 %.not.i.i, label %_ZSt8mismatchIN9__gnu_cxx17__normal_iteratorIPcNSt7__cxx1112basic_stringIcSt11char_traitsIcESaIcEEEEES9_ESt4pairIT_T0_ESB_SB_SC_.exit, label %.lr.ph.i.i, !llvm.loop !10

_ZSt8mismatchIN9__gnu_cxx17__normal_iteratorIPcNSt7__cxx1112basic_stringIcSt11char_traitsIcESaIcEEEEES9_ESt4pairIT_T0_ESB_SB_SC_.exit: ; preds = %.lr.ph.i.i, %19, %9
  %.sroa.03.0.lcssa.i.i = phi ptr [ %10, %9 ], [ %scevgep.i.i, %19 ], [ %.sroa.03.07.i.i, %.lr.ph.i.i ]
  %22 = tail call ptr @_ZNSt7__cxx1112basic_stringIcSt11char_traitsIcESaIcEE5beginEv(ptr noundef nonnull align 8 dereferenceable(32) %1) #22
  call void @_ZNSaIcEC1Ev(ptr noundef nonnull align 1 dereferenceable(1) %4) #22
  %23 = invoke noundef ptr @_ZNSt7__cxx1112basic_stringIcSt11char_traitsIcESaIcEE13_M_local_dataEv(ptr noundef nonnull align 8 dereferenceable(32) %0)
          to label %.noexc unwind label %27

.noexc:                                           ; preds = %_ZSt8mismatchIN9__gnu_cxx17__normal_iteratorIPcNSt7__cxx1112basic_stringIcSt11char_traitsIcESaIcEEEEES9_ESt4pairIT_T0_ESB_SB_SC_.exit
  invoke void @_ZNSt7__cxx1112basic_stringIcSt11char_traitsIcESaIcEE12_Alloc_hiderC1EPcRKS3_(ptr noundef nonnull align 8 dereferenceable(8) %0, ptr noundef %23, ptr noundef nonnull align 1 dereferenceable(1) %4)
          to label %.noexc6 unwind label %27

.noexc6:                                          ; preds = %.noexc
  %24 = getelementptr inbounds nuw i8, ptr %0, i64 8
  store i64 0, ptr %24, align 8
  invoke void @_ZNSt7__cxx1112basic_stringIcSt11char_traitsIcESaIcEE12_M_constructIN9__gnu_cxx17__normal_iteratorIPcS4_EEEEvT_SA_St20forward_iterator_tag(ptr noundef nonnull align 8 dereferenceable(32) %0, ptr %22, ptr %.sroa.03.0.lcssa.i.i)
          to label %_ZNSt7__cxx1112basic_stringIcSt11char_traitsIcESaIcEEC2IN9__gnu_cxx17__normal_iteratorIPcS4_EEvEET_SA_RKS3_.exit unwind label %25

25:                                               ; preds = %.noexc6
  %26 = landingpad { ptr, i32 }
          cleanup
  call void @_ZNSaIcED2Ev(ptr noundef nonnull align 1 dereferenceable(1) %0) #22
  br label %.body

_ZNSt7__cxx1112basic_stringIcSt11char_traitsIcESaIcEEC2IN9__gnu_cxx17__normal_iteratorIPcS4_EEvEET_SA_RKS3_.exit: ; preds = %.noexc6
  call void @_ZNSaIcED1Ev(ptr noundef nonnull align 1 dereferenceable(1) %4) #22
  ret void

27:                                               ; preds = %.noexc, %_ZSt8mismatchIN9__gnu_cxx17__normal_iteratorIPcNSt7__cxx1112basic_stringIcSt11char_traitsIcESaIcEEEEES9_ESt4pairIT_T0_ESB_SB_SC_.exit
  %28 = landingpad { ptr, i32 }
          cleanup
  br label %.body

.body:                                            ; preds = %25, %27
  %eh.lpad-body = phi { ptr, i32 } [ %28, %27 ], [ %26, %25 ]
  call void @_ZNSaIcED1Ev(ptr noundef nonnull align 1 dereferenceable(1) %4) #22
  resume { ptr, i32 } %eh.lpad-body
}